target datalayout = "e-m:e-p270:32:32-p271:32:32-p272:64:64-i64:64-i128:128-f80:128-n8:16:32:64-S128"
target triple = "x86_64-pc-linux-gnu"

%"class.std::set" = type { %"class.std::_Rb_tree" }
%"class.std::_Rb_tree" = type { %"struct.std::_Rb_tree<std::__cxx11::basic_string<char>, std::__cxx11::basic_string<char>, std::_Identity<std::__cxx11::basic_string<char>>, duckdb_re2::Prefilter::LengthThenLex>::_Rb_tree_impl" }
%"struct.std::_Rb_tree<std::__cxx11::basic_string<char>, std::__cxx11::basic_string<char>, std::_Identity<std::__cxx11::basic_string<char>>, duckdb_re2::Prefilter::LengthThenLex>::_Rb_tree_impl" = type { [8 x i8], %"struct.std::_Rb_tree_header" }
%"struct.std::_Rb_tree_header" = type { %"struct.std::_Rb_tree_node_base", i64 }
%"struct.std::_Rb_tree_node_base" = type { i32, ptr, ptr, ptr }
%"class.duckdb_re2::Prefilter::Info" = type { %"class.std::set", i8, ptr }

@_ZN10duckdb_re29Prefilter4InfoD1Ev = hidden unnamed_addr alias void (ptr), ptr @_ZN10duckdb_re29Prefilter4InfoD2Ev

; Function Attrs: mustprogress uwtable
define hidden noundef ptr @_ZN10duckdb_re29Prefilter4Info9TakeMatchEv(ptr noundef nonnull align 8 dereferenceable(64) %0) #0 align 2 {
  %2 = alloca ptr, align 8
  %3 = alloca ptr, align 8
  store ptr %0, ptr %2, align 8, !tbaa !45
  %4 = load ptr, ptr %2, align 8
  %5 = getelementptr inbounds nuw %"class.duckdb_re2::Prefilter::Info", ptr %4, i32 0, i32 1
  %6 = load i8, ptr %5, align 8, !tbaa !47, !range !59, !noundef !60
  %7 = trunc i8 %6 to i1
  br i1 %7, label %8, label %13

8:                                                ; preds = %1
  %9 = getelementptr inbounds nuw %"class.duckdb_re2::Prefilter::Info", ptr %4, i32 0, i32 0
  %10 = call noundef ptr @_ZN10duckdb_re29Prefilter9OrStringsEPSt3setINSt7__cxx1112basic_stringIcSt11char_traitsIcESaIcEEENS0_13LengthThenLexESaIS7_EE(ptr noundef %9)
  %11 = getelementptr inbounds nuw %"class.duckdb_re2::Prefilter::Info", ptr %4, i32 0, i32 2
  store ptr %10, ptr %11, align 8, !tbaa !58
  %12 = getelementptr inbounds nuw %"class.duckdb_re2::Prefilter::Info", ptr %4, i32 0, i32 1
  store i8 0, ptr %12, align 8, !tbaa !47
  br label %13

13:                                               ; preds = %8, %1
  call void @llvm.lifetime.start.p0(i64 8, ptr %3) #18
  %14 = getelementptr inbounds nuw %"class.duckdb_re2::Prefilter::Info", ptr %4, i32 0, i32 2
  %15 = load ptr, ptr %14, align 8, !tbaa !58
  store ptr %15, ptr %3, align 8, !tbaa !3
  %16 = getelementptr inbounds nuw %"class.duckdb_re2::Prefilter::Info", ptr %4, i32 0, i32 2
  store ptr null, ptr %16, align 8, !tbaa !58
  %17 = load ptr, ptr %3, align 8, !tbaa !3
  call void @llvm.lifetime.end.p0(i64 8, ptr %3) #18
  ret ptr %17
}

; Function Attrs: mustprogress uwtable
define hidden noundef ptr @_ZN10duckdb_re29Prefilter10FromRegexpEPNS_6RegexpE(ptr noundef %0) #0 align 2 {
  %2 = alloca ptr, align 8
  %3 = alloca ptr, align 8
  %4 = alloca ptr, align 8
  %5 = alloca i32, align 4
  %6 = alloca ptr, align 8
  %7 = alloca ptr, align 8
  store ptr %0, ptr %3, align 8, !tbaa !93
  %8 = load ptr, ptr %3, align 8, !tbaa !93
  %9 = icmp eq ptr %8, null
  br i1 %9, label %10, label %11

10:                                               ; preds = %1
  store ptr null, ptr %2, align 8
  br label %34

11:                                               ; preds = %1
  call void @llvm.lifetime.start.p0(i64 8, ptr %4) #18
  %12 = load ptr, ptr %3, align 8, !tbaa !93
  %13 = call noundef ptr @_ZN10duckdb_re26Regexp8SimplifyEv(ptr noundef nonnull align 8 dereferenceable(40) %12)
  store ptr %13, ptr %4, align 8, !tbaa !93
  %14 = load ptr, ptr %4, align 8, !tbaa !93
  %15 = icmp eq ptr %14, null
  br i1 %15, label %16, label %17

16:                                               ; preds = %11
  store ptr null, ptr %2, align 8
  store i32 1, ptr %5, align 4
  br label %33

17:                                               ; preds = %11
  call void @llvm.lifetime.start.p0(i64 8, ptr %6) #18
  %18 = load ptr, ptr %4, align 8, !tbaa !93
  %19 = call noundef ptr @_ZN10duckdb_re29Prefilter9BuildInfoEPNS_6RegexpE(ptr noundef %18)
  store ptr %19, ptr %6, align 8, !tbaa !45
  %20 = load ptr, ptr %4, align 8, !tbaa !93
  call void @_ZN10duckdb_re26Regexp6DecrefEv(ptr noundef nonnull align 8 dereferenceable(40) %20)
  %21 = load ptr, ptr %6, align 8, !tbaa !45
  %22 = icmp eq ptr %21, null
  br i1 %22, label %23, label %24

23:                                               ; preds = %17
  store ptr null, ptr %2, align 8
  store i32 1, ptr %5, align 4
  br label %32

24:                                               ; preds = %17
  call void @llvm.lifetime.start.p0(i64 8, ptr %7) #18
  %25 = load ptr, ptr %6, align 8, !tbaa !45
  %26 = call noundef ptr @_ZN10duckdb_re29Prefilter4Info9TakeMatchEv(ptr noundef nonnull align 8 dereferenceable(64) %25)
  store ptr %26, ptr %7, align 8, !tbaa !3
  %27 = load ptr, ptr %6, align 8, !tbaa !45
  %28 = icmp eq ptr %27, null
  br i1 %28, label %30, label %29

29:                                               ; preds = %24
  call void @_ZN10duckdb_re29Prefilter4InfoD1Ev(ptr noundef nonnull align 8 dereferenceable(64) %27) #18
  call void @_ZdlPv(ptr noundef %27) #21
  br label %30

30:                                               ; preds = %29, %24
  %31 = load ptr, ptr %7, align 8, !tbaa !3
  store ptr %31, ptr %2, align 8
  store i32 1, ptr %5, align 4
  call void @llvm.lifetime.end.p0(i64 8, ptr %7) #18
  br label %32

32:                                               ; preds = %30, %23
  call void @llvm.lifetime.end.p0(i64 8, ptr %6) #18
  br label %33

33:                                               ; preds = %32, %16
  call void @llvm.lifetime.end.p0(i64 8, ptr %4) #18
  br label %34

34:                                               ; preds = %33, %10
  %35 = load ptr, ptr %2, align 8
  ret ptr %35
}