; Function Attrs: mustprogress uwtable
define hidden noundef ptr @_ZN10duckdb_re29Prefilter10FromRegexpEPNS_6RegexpE(ptr noundef %0) local_unnamed_addr #0 align 2 personality ptr @__gxx_personality_v0 {
  %2 = icmp eq ptr %0, null
  br i1 %2, label %23, label %3

3:                                                ; preds = %1
  %4 = tail call noundef ptr @_ZN10duckdb_re26Regexp8SimplifyEv(ptr noundef nonnull align 8 dereferenceable(40) %0)
  %5 = icmp eq ptr %4, null
  br i1 %5, label %23, label %6

6:                                                ; preds = %3
  %7 = tail call noundef ptr @_ZN10duckdb_re29Prefilter9BuildInfoEPNS_6RegexpE(ptr noundef nonnull %4)
  tail call void @_ZN10duckdb_re26Regexp6DecrefEv(ptr noundef nonnull align 8 dereferenceable(40) %4)
  %8 = icmp eq ptr %7, null
  br i1 %8, label %23, label %9

9:                                                ; preds = %6
  %10 = getelementptr inbounds nuw i8, ptr %7, i64 48
  %11 = load i8, ptr %10, align 8, !tbaa !43, !range !52, !noundef !53
  %12 = trunc nuw i8 %11 to i1
  br i1 %12, label %13, label %._crit_edge.i

._crit_edge.i:                                    ; preds = %9
  %.phi.trans.insert.i = getelementptr inbounds nuw i8, ptr %7, i64 56
  %.pre.i = load ptr, ptr %.phi.trans.insert.i, align 8, !tbaa !51
  br label %15

13:                                               ; preds = %9
  %14 = tail call noundef ptr @_ZN10duckdb_re29Prefilter9OrStringsEPSt3setINSt7__cxx1112basic_stringIcSt11char_traitsIcESaIcEEENS0_13LengthThenLexESaIS7_EE(ptr noundef nonnull align 8 dereferenceable(64) %7)
  store i8 0, ptr %10, align 8, !tbaa !43
  br label %15

15:                                               ; preds = %13, %._crit_edge.i
  %16 = phi ptr [ %.pre.i, %._crit_edge.i ], [ %14, %13 ]
  %17 = getelementptr inbounds nuw i8, ptr %7, i64 56
  store ptr null, ptr %17, align 8, !tbaa !51
  %18 = getelementptr inbounds nuw i8, ptr %7, i64 16
  %19 = load ptr, ptr %18, align 8, !tbaa !41
  invoke void @_ZNSt8_Rb_treeINSt7__cxx1112basic_stringIcSt11char_traitsIcESaIcEEES5_St9_IdentityIS5_EN10duckdb_re29Prefilter13LengthThenLexESaIS5_EE8_M_eraseEPSt13_Rb_tree_nodeIS5_E(ptr noundef nonnull align 8 dereferenceable(64) %7, ptr noundef %19)
          to label %_ZN10duckdb_re29Prefilter4InfoD2Ev.exit unwind label %20

20:                                               ; preds = %15
  %21 = landingpad { ptr, i32 }
          catch ptr null
  %22 = extractvalue { ptr, i32 } %21, 0
  tail call void @__clang_call_terminate(ptr %22) #25
  unreachable

_ZN10duckdb_re29Prefilter4InfoD2Ev.exit:          ; preds = %15
  tail call void @_ZdlPv(ptr noundef nonnull %7) #22
  br label %23

23:                                               ; preds = %3, %6, %_ZN10duckdb_re29Prefilter4InfoD2Ev.exit, %1
  %.0 = phi ptr [ null, %1 ], [ null, %3 ], [ %16, %_ZN10duckdb_re29Prefilter4InfoD2Ev.exit ], [ null, %6 ]
  ret ptr %.0
}